target datalayout = "e-m:e-p270:32:32-p271:32:32-p272:64:64-i64:64-i128:128-f80:128-n8:16:32:64-S128"
target triple = "x86_64-pc-linux-gnu"

%"class.icu_77::FormattedRelativeDateTime" = type <{ %"class.icu_77::FormattedValue", ptr, i32, [4 x i8] }>
%"class.icu_77::FormattedValue" = type { ptr }

; Function Attrs: mustprogress nounwind uwtable
define noundef nonnull align 8 dereferenceable(20) ptr @_ZN6icu_7725FormattedRelativeDateTimeaSEOS0_(ptr noundef nonnull align 8 dereferenceable(20) %0, ptr noundef nonnull align 8 dereferenceable(20) %1) #0 align 2 {
  %3 = alloca ptr, align 8
  %4 = alloca ptr, align 8
  store ptr %0, ptr %3, align 8, !tbaa !82
  store ptr %1, ptr %4, align 8, !tbaa !82
  %5 = load ptr, ptr %3, align 8
  %6 = getelementptr inbounds nuw %"class.icu_77::FormattedRelativeDateTime", ptr %5, i32 0, i32 1
  %7 = load ptr, ptr %6, align 8, !tbaa !84
  %8 = icmp eq ptr %7, null
  br i1 %8, label %13, label %9

9:                                                ; preds = %2
  %10 = load ptr, ptr %7, align 8, !tbaa !25
  %11 = getelementptr inbounds ptr, ptr %10, i64 1
  %12 = load ptr, ptr %11, align 8
  call void %12(ptr noundef nonnull align 8 dereferenceable(300) %7) #12
  br label %13

13:                                               ; preds = %9, %2
  %14 = load ptr, ptr %4, align 8, !tbaa !82
  %15 = getelementptr inbounds nuw %"class.icu_77::FormattedRelativeDateTime", ptr %14, i32 0, i32 1
  %16 = load ptr, ptr %15, align 8, !tbaa !84
  %17 = getelementptr inbounds nuw %"class.icu_77::FormattedRelativeDateTime", ptr %5, i32 0, i32 1
  store ptr %16, ptr %17, align 8, !tbaa !84
  %18 = load ptr, ptr %4, align 8, !tbaa !82
  %19 = getelementptr inbounds nuw %"class.icu_77::FormattedRelativeDateTime", ptr %18, i32 0, i32 1
  store ptr null, ptr %19, align 8, !tbaa !84
  %20 = load ptr, ptr %4, align 8, !tbaa !82
  %21 = getelementptr inbounds nuw %"class.icu_77::FormattedRelativeDateTime", ptr %20, i32 0, i32 2
  %22 = load i32, ptr %21, align 8, !tbaa !87
  %23 = getelementptr inbounds nuw %"class.icu_77::FormattedRelativeDateTime", ptr %5, i32 0, i32 2
  store i32 %22, ptr %23, align 8, !tbaa !87
  %24 = load ptr, ptr %4, align 8, !tbaa !82
  %25 = getelementptr inbounds nuw %"class.icu_77::FormattedRelativeDateTime", ptr %24, i32 0, i32 2
  store i32 27, ptr %25, align 8, !tbaa !87
  ret ptr %5
}